; Function Attrs: cold nounwind optsize uwtable
define internal void @uninit(ptr noundef readonly captures(none) %0) #0 {
  %2 = getelementptr inbounds nuw i8, ptr %0, i64 72
  %3 = load ptr, ptr %2, align 8, !tbaa !4
  %4 = getelementptr inbounds nuw i8, ptr %3, i64 8
  tail call void @avpriv_elbg_free(ptr noundef nonnull %4) #4
  %5 = getelementptr inbounds nuw i8, ptr %3, i64 320
  tail call void @av_freep(ptr noundef nonnull %5) #4
  %6 = getelementptr inbounds nuw i8, ptr %3, i64 296
  tail call void @av_freep(ptr noundef nonnull %6) #4
  %7 = getelementptr inbounds nuw i8, ptr %3, i64 312
  tail call void @av_freep(ptr noundef nonnull %7) #4
  ret void
}